
dist/default/production/ledStrip.X.production.elf:     file format elf32-avr

Sections:
Idx Name          Size      VMA       LMA       File off  Algn
  0 .text         00000ac0  00000000  00000000  00000094  2**1
                  CONTENTS, ALLOC, LOAD, READONLY, CODE
  1 .data         0000000c  00800060  00000ac0  00000b54  2**0
                  CONTENTS, ALLOC, LOAD, DATA
  2 .bss          00000070  0080006c  0080006c  00000b60  2**0
                  ALLOC
  3 .comment      00000030  00000000  00000000  00000b60  2**0
                  CONTENTS, READONLY
  4 .note.gnu.avr.deviceinfo 0000003c  00000000  00000000  00000b90  2**2
                  CONTENTS, READONLY
  5 .debug_info   00000420  00000000  00000000  00000bcc  2**0
                  CONTENTS, READONLY, DEBUGGING
  6 .debug_abbrev 000003e8  00000000  00000000  00000fec  2**0
                  CONTENTS, READONLY, DEBUGGING
  7 .debug_line   000000f1  00000000  00000000  000013d4  2**0
                  CONTENTS, READONLY, DEBUGGING
  8 .debug_str    00000169  00000000  00000000  000014c5  2**0
                  CONTENTS, READONLY, DEBUGGING

Disassembly of section .text:

00000000 <__vectors>:
   0:	8e c1       	rjmp	.+796    	; 0x31e <__ctors_end>
   2:	a8 c1       	rjmp	.+848    	; 0x354 <__bad_interrupt>
   4:	0b c2       	rjmp	.+1046   	; 0x41c <__vector_2>
   6:	a6 c1       	rjmp	.+844    	; 0x354 <__bad_interrupt>
   8:	26 c3       	rjmp	.+1612   	; 0x656 <__vector_4>
   a:	cd c4       	rjmp	.+2458   	; 0x9a6 <__vector_5>
   c:	a3 c1       	rjmp	.+838    	; 0x354 <__bad_interrupt>
   e:	a2 c1       	rjmp	.+836    	; 0x354 <__bad_interrupt>
  10:	a1 c1       	rjmp	.+834    	; 0x354 <__bad_interrupt>
  12:	a0 c1       	rjmp	.+832    	; 0x354 <__bad_interrupt>
  14:	9f c1       	rjmp	.+830    	; 0x354 <__bad_interrupt>
  16:	9e c1       	rjmp	.+828    	; 0x354 <__bad_interrupt>
  18:	9d c1       	rjmp	.+826    	; 0x354 <__bad_interrupt>
  1a:	9c c1       	rjmp	.+824    	; 0x354 <__bad_interrupt>
  1c:	9b c1       	rjmp	.+822    	; 0x354 <__bad_interrupt>

0000001e <__trampolines_end>:
  1e:	3f 42       	sbci	r19, 0x2F	; 47
  20:	45 48       	sbci	r20, 0x85	; 133
  22:	4a 4d       	sbci	r20, 0xDA	; 218
  24:	50 53       	subi	r21, 0x30	; 48
  26:	56 59       	subi	r21, 0x96	; 150
  28:	5c 5f       	subi	r21, 0xFC	; 252
  2a:	62 65       	ori	r22, 0x52	; 82
  2c:	68 6b       	ori	r22, 0xB8	; 184
  2e:	6e 71       	andi	r22, 0x1E	; 30
  30:	75 78       	andi	r23, 0x85	; 133
  32:	7b 7e       	andi	r23, 0xEB	; 235
  34:	81 84       	ldd	r8, Z+9	; 0x09
  36:	87 8a       	std	Z+23, r8	; 0x17
  38:	8e 91       	ld	r24, -X
  3a:	94 97       	sbiw	r26, 0x24	; 36
  3c:	9a 9d       	mul	r25, r10
  3e:	a0 a3       	std	Z+32, r26	; 0x20
  40:	a6 a9       	ldd	r26, Z+54	; 0x36
  42:	ac af       	std	Y+60, r26	; 0x3c
  44:	b2 b5       	in	r27, 0x22	; 34
  46:	b7 ba       	out	0x17, r11	; 23
  48:	bd c0       	rjmp	.+378    	; 0x1c4 <__stack+0x65>
  4a:	c2 c5       	rjmp	.+2948   	; 0xbd0 <__data_load_end+0x104>
  4c:	c8 ca       	rjmp	.-2672   	; 0xfffff5de <__eeprom_end+0xff7ef5de>
  4e:	cd cf       	rjmp	.-102    	; 0xffffffea <__eeprom_end+0xff7effea>
  50:	d1 d4       	rcall	.+2466   	; 0x9f4 <__vector_5+0x4e>
  52:	d6 d8       	rcall	.-3668   	; 0xfffff200 <__eeprom_end+0xff7ef200>
  54:	db dd       	rcall	.-1098   	; 0xfffffc0c <__eeprom_end+0xff7efc0c>
  56:	df e1       	ldi	r29, 0x1F	; 31
  58:	e3 e5       	ldi	r30, 0x53	; 83
  5a:	e7 e8       	ldi	r30, 0x87	; 135
  5c:	ea ec       	ldi	r30, 0xCA	; 202
  5e:	ed ef       	ldi	r30, 0xFD	; 253
  60:	f0 f2       	brcs	.-68     	; 0x1e <__trampolines_end>
  62:	f3 f4       	brvc	.+60     	; 0xa0 <__SREG__+0x61>
  64:	f6 f7       	brtc	.-4      	; 0x62 <__SREG__+0x23>
  66:	f8 f9       	.word	0xf9f8	; ????
  68:	fa fa       	.word	0xfafa	; ????
  6a:	fb fc       	.word	0xfcfb	; ????
  6c:	fc fd       	.word	0xfdfc	; ????
  6e:	fd fe       	.word	0xfefd	; ????
  70:	fe fe       	.word	0xfefe	; ????
  72:	fe fe       	.word	0xfefe	; ????
  74:	fe fe       	.word	0xfefe	; ????
  76:	fe fe       	.word	0xfefe	; ????
  78:	fe fd       	.word	0xfdfe	; ????
  7a:	fd fc       	.word	0xfcfd	; ????
  7c:	fc fb       	.word	0xfbfc	; ????
  7e:	fa f9       	.word	0xf9fa	; ????
  80:	f8 f7       	brcc	.-2      	; 0x80 <__SREG__+0x41>
  82:	f6 f5       	brtc	.+124    	; 0x100 <__DATA_REGION_LENGTH__>
  84:	f4 f3       	brlt	.-4      	; 0x82 <__SREG__+0x43>
  86:	f1 f0       	breq	.+60     	; 0xc4 <__SREG__+0x85>
  88:	ee ed       	ldi	r30, 0xDE	; 222
  8a:	eb ea       	ldi	r30, 0xAB	; 171
  8c:	e8 e6       	ldi	r30, 0x68	; 104
  8e:	e4 e2       	ldi	r30, 0x24	; 36
  90:	e0 de       	rcall	.-576    	; 0xfffffe52 <__eeprom_end+0xff7efe52>
  92:	dc da       	rcall	.-2632   	; 0xfffff64c <__eeprom_end+0xff7ef64c>
  94:	d8 d5       	rcall	.+2992   	; 0xc46 <__data_load_end+0x17a>
  96:	d3 d1       	rcall	.+934    	; 0x43e <__vector_2+0x22>
  98:	ce cc       	rjmp	.-1636   	; 0xfffffa36 <__eeprom_end+0xff7efa36>
  9a:	c9 c7       	rjmp	.+3986   	; 0x102e <__TEXT_REGION_LENGTH__+0x2e>
  9c:	c4 c1       	rjmp	.+904    	; 0x426 <__vector_2+0xa>
  9e:	bf bc       	out	0x2f, r11	; 47
  a0:	b9 b6       	in	r11, 0x39	; 57
  a2:	b4 b1       	in	r27, 0x04	; 4
  a4:	ae ab       	std	Y+54, r26	; 0x36
  a6:	a8 a5       	ldd	r26, Y+40	; 0x28
  a8:	a2 9f       	mul	r26, r18
  aa:	9c 99       	sbic	0x13, 4	; 19
  ac:	96 93       	lac	Z, r25
  ae:	90 8d       	ldd	r25, Z+24	; 0x18
  b0:	89 86       	std	Y+9, r8	; 0x09
  b2:	83 80       	ldd	r8, Z+3	; 0x03
  b4:	7d 7a       	andi	r23, 0xAD	; 173
  b6:	77 74       	andi	r23, 0x47	; 71
  b8:	70 6d       	ori	r23, 0xD0	; 208
  ba:	6a 67       	ori	r22, 0x7A	; 122
  bc:	64 61       	ori	r22, 0x14	; 20
  be:	5e 5b       	subi	r21, 0xBE	; 190
  c0:	58 55       	subi	r21, 0x58	; 88
  c2:	52 4f       	sbci	r21, 0xF2	; 242
  c4:	4c 49       	sbci	r20, 0x9C	; 156
  c6:	47 44       	sbci	r20, 0x47	; 71
  c8:	41 3e       	cpi	r20, 0xE1	; 225
  ca:	3c 39       	cpi	r19, 0x9C	; 156
  cc:	36 34       	cpi	r19, 0x46	; 70
  ce:	31 2f       	mov	r19, r17
  d0:	2d 2a       	or	r2, r29
  d2:	28 26       	eor	r2, r24
  d4:	23 21       	and	r18, r3
  d6:	1f 1d       	adc	r17, r15
  d8:	1b 19       	sub	r17, r11
  da:	17 16       	cp	r1, r23
  dc:	14 12       	cpse	r1, r20
  de:	11 0f       	add	r17, r17
  e0:	0e 0c       	add	r0, r14
  e2:	0b 0a       	sbc	r0, r27
  e4:	08 07       	cpc	r16, r24
  e6:	06 05       	cpc	r16, r6
  e8:	04 04       	cpc	r0, r4
  ea:	03 02       	muls	r16, r19
  ec:	02 01       	movw	r0, r4
  ee:	01 00       	.word	0x0001	; ????
	...
  f8:	00 01       	movw	r0, r0
  fa:	01 02       	muls	r16, r17
  fc:	02 03       	mulsu	r16, r18
  fe:	04 05       	cpc	r16, r4
 100:	06 07       	cpc	r16, r22
 102:	08 09       	sbc	r16, r8
 104:	0a 0b       	sbc	r16, r26
 106:	0d 0e       	add	r0, r29
 108:	10 11       	cpse	r17, r0
 10a:	13 14       	cp	r1, r3
 10c:	16 18       	sub	r1, r6
 10e:	1a 1c       	adc	r1, r10
 110:	1e 20       	and	r1, r14
 112:	22 24       	eor	r2, r2
 114:	26 29       	or	r18, r6
 116:	2b 2d       	mov	r18, r11
 118:	30 32       	cpi	r19, 0x20	; 32
 11a:	35 37       	cpi	r19, 0x75	; 117
 11c:	3a 3d       	cpi	r19, 0xDA	; 218

0000011e <green>:
 11e:	3f 3d 3a 37 35 32 30 2d 2b 29 26 24 22 20 1e 1c     ?=:7520-+)&$" ..
 12e:	1a 18 16 14 13 11 10 0e 0d 0b 0a 09 08 07 06 05     ................
 13e:	04 03 02 02 01 01 00 00 00 00 00 00 00 00 00 00     ................
 14e:	01 01 02 02 03 04 04 05 06 07 08 0a 0b 0c 0e 0f     ................
 15e:	11 12 14 16 17 19 1b 1d 1f 21 23 26 28 2a 2d 2f     .........!#&(*-/
 16e:	31 34 36 39 3c 3e 41 44 47 49 4c 4f 52 55 58 5b     1469<>ADGILORUX[
 17e:	5e 61 64 67 6a 6d 70 74 77 7a 7d 80 83 86 89 8d     ^adgjmptwz}.....
 18e:	90 93 96 99 9c 9f a2 a5 a8 ab ae b1 b4 b6 b9 bc     ................
 19e:	bf c1 c4 c7 c9 cc ce d1 d3 d5 d8 da dc de e0 e2     ................
 1ae:	e4 e6 e8 ea eb ed ee f0 f1 f3 f4 f5 f6 f7 f8 f9     ................
 1be:	fa fb fc fc fd fd fe fe fe fe fe fe fe fe fe fe     ................
 1ce:	fd fd fc fc fb fa fa f9 f8 f7 f6 f4 f3 f2 f0 ef     ................
 1de:	ed ec ea e8 e7 e5 e3 e1 df dd db d8 d6 d4 d1 cf     ................
 1ee:	cd ca c8 c5 c2 c0 bd ba b7 b5 b2 af ac a9 a6 a3     ................
 1fe:	a0 9d 9a 97 94 91 8e 8a 87 84 81 7e 7b 78 75 71     ...........~{xuq
 20e:	6e 6b 68 65 62 5f 5c 59 56 53 50 4d 4a 48 45 42     nkheb_\YVSPMJHEB

0000021e <red>:
 21e:	ff fe fe fe fe fe fd fd fc fb fb fa f9 f8 f7 f6     ................
 22e:	f5 f4 f2 f1 ef ee ec eb e9 e7 e5 e4 e2 e0 dd db     ................
 23e:	d9 d7 d5 d2 d0 cd cb c8 c6 c3 c1 be bb b8 b6 b3     ................
 24e:	b0 ad aa a7 a4 a1 9e 9b 98 95 92 8f 8b 88 85 82     ................
 25e:	7f 7c 79 76 73 6f 6c 69 66 63 60 5d 5a 57 54 51     .|yvsolifc`]ZWTQ
 26e:	4e 4b 48 46 43 40 3d 3b 38 36 33 31 2e 2c 29 27     NKHFC@=;8631.,)'
 27e:	25 23 21 1e 1c 1a 19 17 15 13 12 10 0f 0d 0c 0a     %#!.............
 28e:	09 08 07 06 05 04 03 03 02 01 01 00 00 00 00 00     ................
 29e:	00 00 00 00 00 00 01 01 02 03 03 04 05 06 07 08     ................
 2ae:	09 0a 0c 0d 0f 10 12 13 15 17 19 1a 1c 1e 21 23     ..............!#
 2be:	25 27 29 2c 2e 31 33 36 38 3b 3d 40 43 46 48 4b     %'),.1368;=@CFHK
 2ce:	4e 51 54 57 5a 5d 60 63 66 69 6c 6f 73 76 79 7c     NQTWZ]`cfilosvy|
 2de:	7f 82 85 88 8b 8f 92 95 98 9b 9e a1 a4 a7 aa ad     ................
 2ee:	b0 b3 b6 b8 bb be c1 c3 c6 c8 cb cd d0 d2 d5 d7     ................
 2fe:	d9 db dd e0 e2 e4 e5 e7 e9 eb ec ee ef f1 f2 f4     ................
 30e:	f5 f6 f7 f8 f9 fa fb fb fc fd fd fe fe fe fe fe     ................

0000031e <__ctors_end>:
 31e:	11 24       	eor	r1, r1
 320:	1f be       	out	0x3f, r1	; 63
 322:	cf e5       	ldi	r28, 0x5F	; 95
 324:	d1 e0       	ldi	r29, 0x01	; 1
 326:	de bf       	out	0x3e, r29	; 62
 328:	cd bf       	out	0x3d, r28	; 61

0000032a <__do_copy_data>:
 32a:	10 e0       	ldi	r17, 0x00	; 0
 32c:	a0 e6       	ldi	r26, 0x60	; 96
 32e:	b0 e0       	ldi	r27, 0x00	; 0
 330:	e0 ec       	ldi	r30, 0xC0	; 192
 332:	fa e0       	ldi	r31, 0x0A	; 10
 334:	02 c0       	rjmp	.+4      	; 0x33a <__do_copy_data+0x10>
 336:	05 90       	lpm	r0, Z+
 338:	0d 92       	st	X+, r0
 33a:	ac 36       	cpi	r26, 0x6C	; 108
 33c:	b1 07       	cpc	r27, r17
 33e:	d9 f7       	brne	.-10     	; 0x336 <__do_copy_data+0xc>

00000340 <__do_clear_bss>:
 340:	20 e0       	ldi	r18, 0x00	; 0
 342:	ac e6       	ldi	r26, 0x6C	; 108
 344:	b0 e0       	ldi	r27, 0x00	; 0
 346:	01 c0       	rjmp	.+2      	; 0x34a <.do_clear_bss_start>

00000348 <.do_clear_bss_loop>:
 348:	1d 92       	st	X+, r1

0000034a <.do_clear_bss_start>:
 34a:	ac 3d       	cpi	r26, 0xDC	; 220
 34c:	b2 07       	cpc	r27, r18
 34e:	e1 f7       	brne	.-8      	; 0x348 <.do_clear_bss_loop>
 350:	02 d0       	rcall	.+4      	; 0x356 <main>
 352:	b4 c3       	rjmp	.+1896   	; 0xabc <_exit>

00000354 <__bad_interrupt>:
 354:	55 ce       	rjmp	.-854    	; 0x0 <__vectors>

00000356 <main>:
 356:	cf 93       	push	r28
 358:	df 93       	push	r29
 35a:	00 d0       	rcall	.+0      	; 0x35c <main+0x6>
 35c:	cd b7       	in	r28, 0x3d	; 61
 35e:	de b7       	in	r29, 0x3e	; 62
 360:	cc d1       	rcall	.+920    	; 0x6fa <LEDInit>
 362:	09 d0       	rcall	.+18     	; 0x376 <IRInit>
 364:	ce 01       	movw	r24, r28
 366:	01 96       	adiw	r24, 0x01	; 1
 368:	44 d0       	rcall	.+136    	; 0x3f2 <getData>
 36a:	81 11       	cpse	r24, r1
 36c:	fb cf       	rjmp	.-10     	; 0x364 <main+0xe>
 36e:	89 81       	ldd	r24, Y+1	; 0x01
 370:	9a 81       	ldd	r25, Y+2	; 0x02
 372:	e1 d1       	rcall	.+962    	; 0x736 <changeLed>
 374:	f7 cf       	rjmp	.-18     	; 0x364 <main+0xe>

00000376 <IRInit>:
 376:	10 92 79 00 	sts	0x0079, r1	; 0x800079 <necCode>
 37a:	10 92 7a 00 	sts	0x007A, r1	; 0x80007a <necCode+0x1>
 37e:	10 92 7b 00 	sts	0x007B, r1	; 0x80007b <necCode+0x2>
 382:	10 92 7c 00 	sts	0x007C, r1	; 0x80007c <necCode+0x3>
 386:	10 92 7e 00 	sts	0x007E, r1	; 0x80007e <valid>
 38a:	10 92 7d 00 	sts	0x007D, r1	; 0x80007d <state>
 38e:	10 92 7f 00 	sts	0x007F, r1	; 0x80007f <count>
 392:	10 92 80 00 	sts	0x0080, r1	; 0x800080 <count+0x1>
 396:	10 92 81 00 	sts	0x0081, r1	; 0x800081 <count+0x2>
 39a:	10 92 82 00 	sts	0x0082, r1	; 0x800082 <count+0x3>
 39e:	10 92 6c 00 	sts	0x006C, r1	; 0x80006c <__data_end>
 3a2:	10 92 6d 00 	sts	0x006D, r1	; 0x80006d <__data_end+0x1>
 3a6:	10 92 6e 00 	sts	0x006E, r1	; 0x80006e <__data_end+0x2>
 3aa:	10 92 6f 00 	sts	0x006F, r1	; 0x80006f <__data_end+0x3>
 3ae:	10 92 70 00 	sts	0x0070, r1	; 0x800070 <diff>
 3b2:	10 92 71 00 	sts	0x0071, r1	; 0x800071 <diff+0x1>
 3b6:	10 92 72 00 	sts	0x0072, r1	; 0x800072 <diff+0x2>
 3ba:	10 92 73 00 	sts	0x0073, r1	; 0x800073 <diff+0x3>
 3be:	10 92 74 00 	sts	0x0074, r1	; 0x800074 <time>
 3c2:	10 92 75 00 	sts	0x0075, r1	; 0x800075 <time+0x1>
 3c6:	10 92 76 00 	sts	0x0076, r1	; 0x800076 <time+0x2>
 3ca:	10 92 77 00 	sts	0x0077, r1	; 0x800077 <time+0x3>
 3ce:	8f b7       	in	r24, 0x3f	; 63
 3d0:	8f 77       	andi	r24, 0x7F	; 127
 3d2:	8f bf       	out	0x3f, r24	; 63
 3d4:	8b b7       	in	r24, 0x3b	; 59
 3d6:	80 62       	ori	r24, 0x20	; 32
 3d8:	8b bf       	out	0x3b, r24	; 59
 3da:	ab 9a       	sbi	0x15, 3	; 21
 3dc:	89 b7       	in	r24, 0x39	; 57
 3de:	84 60       	ori	r24, 0x04	; 4
 3e0:	89 bf       	out	0x39, r24	; 57
 3e2:	1f bc       	out	0x2f, r1	; 47
 3e4:	80 b7       	in	r24, 0x30	; 48
 3e6:	84 60       	ori	r24, 0x04	; 4
 3e8:	80 bf       	out	0x30, r24	; 48
 3ea:	8f b7       	in	r24, 0x3f	; 63
 3ec:	80 68       	ori	r24, 0x80	; 128
 3ee:	8f bf       	out	0x3f, r24	; 63
 3f0:	08 95       	ret

000003f2 <getData>:
 3f2:	fc 01       	movw	r30, r24
 3f4:	90 91 7e 00 	lds	r25, 0x007E	; 0x80007e <valid>
 3f8:	99 23       	and	r25, r25
 3fa:	71 f0       	breq	.+28     	; 0x418 <__LOCK_REGION_LENGTH__+0x18>
 3fc:	80 91 79 00 	lds	r24, 0x0079	; 0x800079 <necCode>
 400:	90 91 7a 00 	lds	r25, 0x007A	; 0x80007a <necCode+0x1>
 404:	a0 91 7b 00 	lds	r26, 0x007B	; 0x80007b <necCode+0x2>
 408:	b0 91 7c 00 	lds	r27, 0x007C	; 0x80007c <necCode+0x3>
 40c:	b1 83       	std	Z+1, r27	; 0x01
 40e:	a0 83       	st	Z, r26
 410:	10 92 7e 00 	sts	0x007E, r1	; 0x80007e <valid>
 414:	80 e0       	ldi	r24, 0x00	; 0
 416:	08 95       	ret
 418:	8f ef       	ldi	r24, 0xFF	; 255
 41a:	08 95       	ret

0000041c <__vector_2>:
 41c:	1f 92       	push	r1
 41e:	0f 92       	push	r0
 420:	0f b6       	in	r0, 0x3f	; 63
 422:	0f 92       	push	r0
 424:	11 24       	eor	r1, r1
 426:	0f 93       	push	r16
 428:	1f 93       	push	r17
 42a:	2f 93       	push	r18
 42c:	3f 93       	push	r19
 42e:	4f 93       	push	r20
 430:	5f 93       	push	r21
 432:	6f 93       	push	r22
 434:	7f 93       	push	r23
 436:	8f 93       	push	r24
 438:	9f 93       	push	r25
 43a:	af 93       	push	r26
 43c:	bf 93       	push	r27
 43e:	ef 93       	push	r30
 440:	2f b5       	in	r18, 0x2f	; 47
 442:	80 91 7f 00 	lds	r24, 0x007F	; 0x80007f <count>
 446:	90 91 80 00 	lds	r25, 0x0080	; 0x800080 <count+0x1>
 44a:	a0 91 81 00 	lds	r26, 0x0081	; 0x800081 <count+0x2>
 44e:	b0 91 82 00 	lds	r27, 0x0082	; 0x800082 <count+0x3>
 452:	ba 2f       	mov	r27, r26
 454:	a9 2f       	mov	r26, r25
 456:	98 2f       	mov	r25, r24
 458:	88 27       	eor	r24, r24
 45a:	82 0f       	add	r24, r18
 45c:	91 1d       	adc	r25, r1
 45e:	a1 1d       	adc	r26, r1
 460:	b1 1d       	adc	r27, r1
 462:	80 93 74 00 	sts	0x0074, r24	; 0x800074 <time>
 466:	90 93 75 00 	sts	0x0075, r25	; 0x800075 <time+0x1>
 46a:	a0 93 76 00 	sts	0x0076, r26	; 0x800076 <time+0x2>
 46e:	b0 93 77 00 	sts	0x0077, r27	; 0x800077 <time+0x3>
 472:	40 91 6c 00 	lds	r20, 0x006C	; 0x80006c <__data_end>
 476:	50 91 6d 00 	lds	r21, 0x006D	; 0x80006d <__data_end+0x1>
 47a:	60 91 6e 00 	lds	r22, 0x006E	; 0x80006e <__data_end+0x2>
 47e:	70 91 6f 00 	lds	r23, 0x006F	; 0x80006f <__data_end+0x3>
 482:	84 1b       	sub	r24, r20
 484:	95 0b       	sbc	r25, r21
 486:	a6 0b       	sbc	r26, r22
 488:	b7 0b       	sbc	r27, r23
 48a:	80 93 70 00 	sts	0x0070, r24	; 0x800070 <diff>
 48e:	90 93 71 00 	sts	0x0071, r25	; 0x800071 <diff+0x1>
 492:	a0 93 72 00 	sts	0x0072, r26	; 0x800072 <diff+0x2>
 496:	b0 93 73 00 	sts	0x0073, r27	; 0x800073 <diff+0x3>
 49a:	98 b3       	in	r25, 0x18	; 24
 49c:	80 e1       	ldi	r24, 0x10	; 16
 49e:	89 27       	eor	r24, r25
 4a0:	88 bb       	out	0x18, r24	; 24
 4a2:	80 91 7d 00 	lds	r24, 0x007D	; 0x80007d <state>
 4a6:	83 30       	cpi	r24, 0x03	; 3
 4a8:	08 f0       	brcs	.+2      	; 0x4ac <__vector_2+0x90>
 4aa:	58 c0       	rjmp	.+176    	; 0x55c <__vector_2+0x140>
 4ac:	81 30       	cpi	r24, 0x01	; 1
 4ae:	e9 f0       	breq	.+58     	; 0x4ea <__vector_2+0xce>
 4b0:	18 f0       	brcs	.+6      	; 0x4b8 <__vector_2+0x9c>
 4b2:	82 30       	cpi	r24, 0x02	; 2
 4b4:	a9 f1       	breq	.+106    	; 0x520 <__vector_2+0x104>
 4b6:	4f c0       	rjmp	.+158    	; 0x556 <__vector_2+0x13a>
 4b8:	86 b3       	in	r24, 0x16	; 22
 4ba:	83 fb       	bst	r24, 3
 4bc:	99 27       	eor	r25, r25
 4be:	90 f9       	bld	r25, 0
 4c0:	81 e0       	ldi	r24, 0x01	; 1
 4c2:	89 27       	eor	r24, r25
 4c4:	80 93 7d 00 	sts	0x007D, r24	; 0x80007d <state>
 4c8:	10 92 7f 00 	sts	0x007F, r1	; 0x80007f <count>
 4cc:	10 92 80 00 	sts	0x0080, r1	; 0x800080 <count+0x1>
 4d0:	10 92 81 00 	sts	0x0081, r1	; 0x800081 <count+0x2>
 4d4:	10 92 82 00 	sts	0x0082, r1	; 0x800082 <count+0x3>
 4d8:	10 92 6c 00 	sts	0x006C, r1	; 0x80006c <__data_end>
 4dc:	10 92 6d 00 	sts	0x006D, r1	; 0x80006d <__data_end+0x1>
 4e0:	10 92 6e 00 	sts	0x006E, r1	; 0x80006e <__data_end+0x2>
 4e4:	10 92 6f 00 	sts	0x006F, r1	; 0x80006f <__data_end+0x3>
 4e8:	a2 c0       	rjmp	.+324    	; 0x62e <__vector_2+0x212>
 4ea:	80 91 70 00 	lds	r24, 0x0070	; 0x800070 <diff>
 4ee:	90 91 71 00 	lds	r25, 0x0071	; 0x800071 <diff+0x1>
 4f2:	a0 91 72 00 	lds	r26, 0x0072	; 0x800072 <diff+0x2>
 4f6:	b0 91 73 00 	lds	r27, 0x0073	; 0x800073 <diff+0x3>
 4fa:	86 56       	subi	r24, 0x66	; 102
 4fc:	91 42       	sbci	r25, 0x21	; 33
 4fe:	a1 09       	sbc	r26, r1
 500:	b1 09       	sbc	r27, r1
 502:	85 38       	cpi	r24, 0x85	; 133
 504:	93 40       	sbci	r25, 0x03	; 3
 506:	a1 05       	cpc	r26, r1
 508:	b1 05       	cpc	r27, r1
 50a:	20 f4       	brcc	.+8      	; 0x514 <__vector_2+0xf8>
 50c:	b3 9b       	sbis	0x16, 3	; 22
 50e:	04 c0       	rjmp	.+8      	; 0x518 <__vector_2+0xfc>
 510:	82 e0       	ldi	r24, 0x02	; 2
 512:	03 c0       	rjmp	.+6      	; 0x51a <__vector_2+0xfe>
 514:	80 e0       	ldi	r24, 0x00	; 0
 516:	01 c0       	rjmp	.+2      	; 0x51a <__vector_2+0xfe>
 518:	80 e0       	ldi	r24, 0x00	; 0
 51a:	80 93 7d 00 	sts	0x007D, r24	; 0x80007d <state>
 51e:	77 c0       	rjmp	.+238    	; 0x60e <__vector_2+0x1f2>
 520:	80 91 70 00 	lds	r24, 0x0070	; 0x800070 <diff>
 524:	90 91 71 00 	lds	r25, 0x0071	; 0x800071 <diff+0x1>
 528:	a0 91 72 00 	lds	r26, 0x0072	; 0x800072 <diff+0x2>
 52c:	b0 91 73 00 	lds	r27, 0x0073	; 0x800073 <diff+0x3>
 530:	80 5a       	subi	r24, 0xA0	; 160
 532:	9f 40       	sbci	r25, 0x0F	; 15
 534:	a1 09       	sbc	r26, r1
 536:	b1 09       	sbc	r27, r1
 538:	89 3e       	cpi	r24, 0xE9	; 233
 53a:	93 40       	sbci	r25, 0x03	; 3
 53c:	a1 05       	cpc	r26, r1
 53e:	b1 05       	cpc	r27, r1
 540:	20 f4       	brcc	.+8      	; 0x54a <__vector_2+0x12e>
 542:	b3 99       	sbic	0x16, 3	; 22
 544:	04 c0       	rjmp	.+8      	; 0x54e <__vector_2+0x132>
 546:	83 e0       	ldi	r24, 0x03	; 3
 548:	03 c0       	rjmp	.+6      	; 0x550 <__vector_2+0x134>
 54a:	80 e0       	ldi	r24, 0x00	; 0
 54c:	01 c0       	rjmp	.+2      	; 0x550 <__vector_2+0x134>
 54e:	80 e0       	ldi	r24, 0x00	; 0
 550:	80 93 7d 00 	sts	0x007D, r24	; 0x80007d <state>
 554:	5c c0       	rjmp	.+184    	; 0x60e <__vector_2+0x1f2>
 556:	10 92 7d 00 	sts	0x007D, r1	; 0x80007d <state>
 55a:	69 c0       	rjmp	.+210    	; 0x62e <__vector_2+0x212>
 55c:	83 32       	cpi	r24, 0x23	; 35
 55e:	b1 f4       	brne	.+44     	; 0x58c <__vector_2+0x170>
 560:	81 e0       	ldi	r24, 0x01	; 1
 562:	80 93 7e 00 	sts	0x007E, r24	; 0x80007e <valid>
 566:	10 92 7d 00 	sts	0x007D, r1	; 0x80007d <state>
 56a:	10 92 7f 00 	sts	0x007F, r1	; 0x80007f <count>
 56e:	10 92 80 00 	sts	0x0080, r1	; 0x800080 <count+0x1>
 572:	10 92 81 00 	sts	0x0081, r1	; 0x800081 <count+0x2>
 576:	10 92 82 00 	sts	0x0082, r1	; 0x800082 <count+0x3>
 57a:	10 92 6c 00 	sts	0x006C, r1	; 0x80006c <__data_end>
 57e:	10 92 6d 00 	sts	0x006D, r1	; 0x80006d <__data_end+0x1>
 582:	10 92 6e 00 	sts	0x006E, r1	; 0x80006e <__data_end+0x2>
 586:	10 92 6f 00 	sts	0x006F, r1	; 0x80006f <__data_end+0x3>
 58a:	51 c0       	rjmp	.+162    	; 0x62e <__vector_2+0x212>
 58c:	b3 99       	sbic	0x16, 3	; 22
 58e:	3f c0       	rjmp	.+126    	; 0x60e <__vector_2+0x1f2>
 590:	8f 5f       	subi	r24, 0xFF	; 255
 592:	80 93 7d 00 	sts	0x007D, r24	; 0x80007d <state>
 596:	80 91 79 00 	lds	r24, 0x0079	; 0x800079 <necCode>
 59a:	90 91 7a 00 	lds	r25, 0x007A	; 0x80007a <necCode+0x1>
 59e:	a0 91 7b 00 	lds	r26, 0x007B	; 0x80007b <necCode+0x2>
 5a2:	b0 91 7c 00 	lds	r27, 0x007C	; 0x80007c <necCode+0x3>
 5a6:	b6 95       	lsr	r27
 5a8:	a7 95       	ror	r26
 5aa:	97 95       	ror	r25
 5ac:	87 95       	ror	r24
 5ae:	80 93 79 00 	sts	0x0079, r24	; 0x800079 <necCode>
 5b2:	90 93 7a 00 	sts	0x007A, r25	; 0x80007a <necCode+0x1>
 5b6:	a0 93 7b 00 	sts	0x007B, r26	; 0x80007b <necCode+0x2>
 5ba:	b0 93 7c 00 	sts	0x007C, r27	; 0x80007c <necCode+0x3>
 5be:	40 91 70 00 	lds	r20, 0x0070	; 0x800070 <diff>
 5c2:	50 91 71 00 	lds	r21, 0x0071	; 0x800071 <diff+0x1>
 5c6:	60 91 72 00 	lds	r22, 0x0072	; 0x800072 <diff+0x2>
 5ca:	70 91 73 00 	lds	r23, 0x0073	; 0x800073 <diff+0x3>
 5ce:	8a 01       	movw	r16, r20
 5d0:	9b 01       	movw	r18, r22
 5d2:	00 5b       	subi	r16, 0xB0	; 176
 5d4:	14 40       	sbci	r17, 0x04	; 4
 5d6:	21 09       	sbc	r18, r1
 5d8:	31 09       	sbc	r19, r1
 5da:	01 32       	cpi	r16, 0x21	; 33
 5dc:	13 40       	sbci	r17, 0x03	; 3
 5de:	21 05       	cpc	r18, r1
 5e0:	31 05       	cpc	r19, r1
 5e2:	50 f4       	brcc	.+20     	; 0x5f8 <__vector_2+0x1dc>
 5e4:	b0 68       	ori	r27, 0x80	; 128
 5e6:	80 93 79 00 	sts	0x0079, r24	; 0x800079 <necCode>
 5ea:	90 93 7a 00 	sts	0x007A, r25	; 0x80007a <necCode+0x1>
 5ee:	a0 93 7b 00 	sts	0x007B, r26	; 0x80007b <necCode+0x2>
 5f2:	b0 93 7c 00 	sts	0x007C, r27	; 0x80007c <necCode+0x3>
 5f6:	0b c0       	rjmp	.+22     	; 0x60e <__vector_2+0x1f2>
 5f8:	4c 52       	subi	r20, 0x2C	; 44
 5fa:	51 40       	sbci	r21, 0x01	; 1
 5fc:	61 09       	sbc	r22, r1
 5fe:	71 09       	sbc	r23, r1
 600:	49 35       	cpi	r20, 0x59	; 89
 602:	52 40       	sbci	r21, 0x02	; 2
 604:	61 05       	cpc	r22, r1
 606:	71 05       	cpc	r23, r1
 608:	10 f0       	brcs	.+4      	; 0x60e <__vector_2+0x1f2>
 60a:	10 92 7d 00 	sts	0x007D, r1	; 0x80007d <state>
 60e:	80 91 74 00 	lds	r24, 0x0074	; 0x800074 <time>
 612:	90 91 75 00 	lds	r25, 0x0075	; 0x800075 <time+0x1>
 616:	a0 91 76 00 	lds	r26, 0x0076	; 0x800076 <time+0x2>
 61a:	b0 91 77 00 	lds	r27, 0x0077	; 0x800077 <time+0x3>
 61e:	80 93 6c 00 	sts	0x006C, r24	; 0x80006c <__data_end>
 622:	90 93 6d 00 	sts	0x006D, r25	; 0x80006d <__data_end+0x1>
 626:	a0 93 6e 00 	sts	0x006E, r26	; 0x80006e <__data_end+0x2>
 62a:	b0 93 6f 00 	sts	0x006F, r27	; 0x80006f <__data_end+0x3>
 62e:	80 e2       	ldi	r24, 0x20	; 32
 630:	8a bf       	out	0x3a, r24	; 58
 632:	ef 91       	pop	r30
 634:	bf 91       	pop	r27
 636:	af 91       	pop	r26
 638:	9f 91       	pop	r25
 63a:	8f 91       	pop	r24
 63c:	7f 91       	pop	r23
 63e:	6f 91       	pop	r22
 640:	5f 91       	pop	r21
 642:	4f 91       	pop	r20
 644:	3f 91       	pop	r19
 646:	2f 91       	pop	r18
 648:	1f 91       	pop	r17
 64a:	0f 91       	pop	r16
 64c:	0f 90       	pop	r0
 64e:	0f be       	out	0x3f, r0	; 63
 650:	0f 90       	pop	r0
 652:	1f 90       	pop	r1
 654:	18 95       	reti

00000656 <__vector_4>:
 656:	1f 92       	push	r1
 658:	0f 92       	push	r0
 65a:	0f b6       	in	r0, 0x3f	; 63
 65c:	0f 92       	push	r0
 65e:	11 24       	eor	r1, r1
 660:	8f 93       	push	r24
 662:	9f 93       	push	r25
 664:	af 93       	push	r26
 666:	bf 93       	push	r27
 668:	80 91 7f 00 	lds	r24, 0x007F	; 0x80007f <count>
 66c:	90 91 80 00 	lds	r25, 0x0080	; 0x800080 <count+0x1>
 670:	a0 91 81 00 	lds	r26, 0x0081	; 0x800081 <count+0x2>
 674:	b0 91 82 00 	lds	r27, 0x0082	; 0x800082 <count+0x3>
 678:	01 96       	adiw	r24, 0x01	; 1
 67a:	a1 1d       	adc	r26, r1
 67c:	b1 1d       	adc	r27, r1
 67e:	80 93 7f 00 	sts	0x007F, r24	; 0x80007f <count>
 682:	90 93 80 00 	sts	0x0080, r25	; 0x800080 <count+0x1>
 686:	a0 93 81 00 	sts	0x0081, r26	; 0x800081 <count+0x2>
 68a:	b0 93 82 00 	sts	0x0082, r27	; 0x800082 <count+0x3>
 68e:	bf 91       	pop	r27
 690:	af 91       	pop	r26
 692:	9f 91       	pop	r25
 694:	8f 91       	pop	r24
 696:	0f 90       	pop	r0
 698:	0f be       	out	0x3f, r0	; 63
 69a:	0f 90       	pop	r0
 69c:	1f 90       	pop	r1
 69e:	18 95       	reti

000006a0 <SPIInit>:
 6a0:	87 b3       	in	r24, 0x17	; 23
 6a2:	86 60       	ori	r24, 0x06	; 6
 6a4:	87 bb       	out	0x17, r24	; 23
 6a6:	6c 9a       	sbi	0x0d, 4	; 13
 6a8:	08 95       	ret

000006aa <SPIoutArray>:
 6aa:	66 23       	and	r22, r22
 6ac:	91 f0       	breq	.+36     	; 0x6d2 <SPIoutArray+0x28>
 6ae:	fc 01       	movw	r30, r24
 6b0:	ac 01       	movw	r20, r24
 6b2:	46 0f       	add	r20, r22
 6b4:	51 1d       	adc	r21, r1
 6b6:	91 91       	ld	r25, Z+
 6b8:	9f b9       	out	0x0f, r25	; 15
 6ba:	28 e0       	ldi	r18, 0x08	; 8
 6bc:	30 e0       	ldi	r19, 0x00	; 0
 6be:	9d b1       	in	r25, 0x0d	; 13
 6c0:	93 60       	ori	r25, 0x03	; 3
 6c2:	9d b9       	out	0x0d, r25	; 13
 6c4:	68 9a       	sbi	0x0d, 0	; 13
 6c6:	21 50       	subi	r18, 0x01	; 1
 6c8:	31 09       	sbc	r19, r1
 6ca:	c9 f7       	brne	.-14     	; 0x6be <SPIoutArray+0x14>
 6cc:	e4 17       	cp	r30, r20
 6ce:	f5 07       	cpc	r31, r21
 6d0:	91 f7       	brne	.-28     	; 0x6b6 <SPIoutArray+0xc>
 6d2:	08 95       	ret

000006d4 <SPIout>:
 6d4:	8f b9       	out	0x0f, r24	; 15
 6d6:	28 e0       	ldi	r18, 0x08	; 8
 6d8:	30 e0       	ldi	r19, 0x00	; 0
 6da:	8d b1       	in	r24, 0x0d	; 13
 6dc:	83 60       	ori	r24, 0x03	; 3
 6de:	8d b9       	out	0x0d, r24	; 13
 6e0:	68 9a       	sbi	0x0d, 0	; 13
 6e2:	21 50       	subi	r18, 0x01	; 1
 6e4:	31 09       	sbc	r19, r1
 6e6:	c9 f7       	brne	.-14     	; 0x6da <SPIout+0x6>
 6e8:	08 95       	ret

000006ea <refreshLed>:
 6ea:	80 91 db 00 	lds	r24, 0x00DB	; 0x8000db <bright>
 6ee:	f2 df       	rcall	.-28     	; 0x6d4 <SPIout>
 6f0:	63 e0       	ldi	r22, 0x03	; 3
 6f2:	80 e6       	ldi	r24, 0x60	; 96
 6f4:	90 e0       	ldi	r25, 0x00	; 0
 6f6:	d9 df       	rcall	.-78     	; 0x6aa <SPIoutArray>
 6f8:	08 95       	ret

000006fa <LEDInit>:
 6fa:	cf 93       	push	r28
 6fc:	df 93       	push	r29
 6fe:	bc 9a       	sbi	0x17, 4	; 23
 700:	8f ef       	ldi	r24, 0xFF	; 255
 702:	80 93 db 00 	sts	0x00DB, r24	; 0x8000db <bright>
 706:	cc df       	rcall	.-104    	; 0x6a0 <SPIInit>
 708:	64 e0       	ldi	r22, 0x04	; 4
 70a:	87 e6       	ldi	r24, 0x67	; 103
 70c:	90 e0       	ldi	r25, 0x00	; 0
 70e:	cd df       	rcall	.-102    	; 0x6aa <SPIoutArray>
 710:	cd e1       	ldi	r28, 0x1D	; 29
 712:	d0 e0       	ldi	r29, 0x00	; 0
 714:	ea df       	rcall	.-44     	; 0x6ea <refreshLed>
 716:	21 97       	sbiw	r28, 0x01	; 1
 718:	e9 f7       	brne	.-6      	; 0x714 <LEDInit+0x1a>
 71a:	64 e0       	ldi	r22, 0x04	; 4
 71c:	83 e6       	ldi	r24, 0x63	; 99
 71e:	90 e0       	ldi	r25, 0x00	; 0
 720:	c4 df       	rcall	.-120    	; 0x6aa <SPIoutArray>
 722:	12 be       	out	0x32, r1	; 50
 724:	83 b7       	in	r24, 0x33	; 51
 726:	84 60       	ori	r24, 0x04	; 4
 728:	83 bf       	out	0x33, r24	; 51
 72a:	89 b7       	in	r24, 0x39	; 57
 72c:	8d 7f       	andi	r24, 0xFD	; 253
 72e:	89 bf       	out	0x39, r24	; 57
 730:	df 91       	pop	r29
 732:	cf 91       	pop	r28
 734:	08 95       	ret

00000736 <changeLed>:
 736:	cf 93       	push	r28
 738:	df 93       	push	r29
 73a:	f8 94       	cli
 73c:	8f 31       	cpi	r24, 0x1F	; 31
 73e:	20 ee       	ldi	r18, 0xE0	; 224
 740:	92 07       	cpc	r25, r18
 742:	09 f4       	brne	.+2      	; 0x746 <changeLed+0x10>
 744:	aa c0       	rjmp	.+340    	; 0x89a <changeLed+0x164>
 746:	d0 f5       	brcc	.+116    	; 0x7bc <changeLed+0x86>
 748:	80 35       	cpi	r24, 0x50	; 80
 74a:	2f ea       	ldi	r18, 0xAF	; 175
 74c:	92 07       	cpc	r25, r18
 74e:	09 f4       	brne	.+2      	; 0x752 <changeLed+0x1c>
 750:	8d c0       	rjmp	.+282    	; 0x86c <changeLed+0x136>
 752:	d0 f4       	brcc	.+52     	; 0x788 <changeLed+0x52>
 754:	89 35       	cpi	r24, 0x59	; 89
 756:	26 ea       	ldi	r18, 0xA6	; 166
 758:	92 07       	cpc	r25, r18
 75a:	09 f4       	brne	.+2      	; 0x75e <changeLed+0x28>
 75c:	ac c0       	rjmp	.+344    	; 0x8b6 <changeLed+0x180>
 75e:	50 f4       	brcc	.+20     	; 0x774 <changeLed+0x3e>
 760:	8d 35       	cpi	r24, 0x5D	; 93
 762:	22 ea       	ldi	r18, 0xA2	; 162
 764:	92 07       	cpc	r25, r18
 766:	09 f4       	brne	.+2      	; 0x76a <changeLed+0x34>
 768:	70 c0       	rjmp	.+224    	; 0x84a <changeLed+0x114>
 76a:	8c 35       	cpi	r24, 0x5C	; 92
 76c:	93 4a       	sbci	r25, 0xA3	; 163
 76e:	09 f4       	brne	.+2      	; 0x772 <changeLed+0x3c>
 770:	64 c0       	rjmp	.+200    	; 0x83a <changeLed+0x104>
 772:	04 c1       	rjmp	.+520    	; 0x97c <changeLed+0x246>
 774:	88 35       	cpi	r24, 0x58	; 88
 776:	27 ea       	ldi	r18, 0xA7	; 167
 778:	92 07       	cpc	r25, r18
 77a:	09 f4       	brne	.+2      	; 0x77e <changeLed+0x48>
 77c:	95 c0       	rjmp	.+298    	; 0x8a8 <changeLed+0x172>
 77e:	84 35       	cpi	r24, 0x54	; 84
 780:	9b 4a       	sbci	r25, 0xAB	; 171
 782:	09 f4       	brne	.+2      	; 0x786 <changeLed+0x50>
 784:	6a c0       	rjmp	.+212    	; 0x85a <changeLed+0x124>
 786:	fa c0       	rjmp	.+500    	; 0x97c <changeLed+0x246>
 788:	85 34       	cpi	r24, 0x45	; 69
 78a:	2a eb       	ldi	r18, 0xBA	; 186
 78c:	92 07       	cpc	r25, r18
 78e:	09 f4       	brne	.+2      	; 0x792 <changeLed+0x5c>
 790:	99 c0       	rjmp	.+306    	; 0x8c4 <changeLed+0x18e>
 792:	50 f4       	brcc	.+20     	; 0x7a8 <changeLed+0x72>
 794:	8c 34       	cpi	r24, 0x4C	; 76
 796:	23 eb       	ldi	r18, 0xB3	; 179
 798:	92 07       	cpc	r25, r18
 79a:	09 f4       	brne	.+2      	; 0x79e <changeLed+0x68>
 79c:	a1 c0       	rjmp	.+322    	; 0x8e0 <changeLed+0x1aa>
 79e:	88 34       	cpi	r24, 0x48	; 72
 7a0:	97 4b       	sbci	r25, 0xB7	; 183
 7a2:	09 f4       	brne	.+2      	; 0x7a6 <changeLed+0x70>
 7a4:	9d c0       	rjmp	.+314    	; 0x8e0 <changeLed+0x1aa>
 7a6:	ea c0       	rjmp	.+468    	; 0x97c <changeLed+0x246>
 7a8:	84 34       	cpi	r24, 0x44	; 68
 7aa:	2b eb       	ldi	r18, 0xBB	; 187
 7ac:	92 07       	cpc	r25, r18
 7ae:	09 f4       	brne	.+2      	; 0x7b2 <changeLed+0x7c>
 7b0:	90 c0       	rjmp	.+288    	; 0x8d2 <changeLed+0x19c>
 7b2:	81 34       	cpi	r24, 0x41	; 65
 7b4:	9e 4b       	sbci	r25, 0xBE	; 190
 7b6:	09 f4       	brne	.+2      	; 0x7ba <changeLed+0x84>
 7b8:	dc c0       	rjmp	.+440    	; 0x972 <changeLed+0x23c>
 7ba:	e0 c0       	rjmp	.+448    	; 0x97c <changeLed+0x246>
 7bc:	85 31       	cpi	r24, 0x15	; 21
 7be:	2a ee       	ldi	r18, 0xEA	; 234
 7c0:	92 07       	cpc	r25, r18
 7c2:	09 f4       	brne	.+2      	; 0x7c6 <changeLed+0x90>
 7c4:	a4 c0       	rjmp	.+328    	; 0x90e <changeLed+0x1d8>
 7c6:	d0 f4       	brcc	.+52     	; 0x7fc <changeLed+0xc6>
 7c8:	88 31       	cpi	r24, 0x18	; 24
 7ca:	27 ee       	ldi	r18, 0xE7	; 231
 7cc:	92 07       	cpc	r25, r18
 7ce:	09 f4       	brne	.+2      	; 0x7d2 <changeLed+0x9c>
 7d0:	5d c0       	rjmp	.+186    	; 0x88c <changeLed+0x156>
 7d2:	50 f4       	brcc	.+20     	; 0x7e8 <changeLed+0xb2>
 7d4:	8c 31       	cpi	r24, 0x1C	; 28
 7d6:	23 ee       	ldi	r18, 0xE3	; 227
 7d8:	92 07       	cpc	r25, r18
 7da:	09 f4       	brne	.+2      	; 0x7de <changeLed+0xa8>
 7dc:	4f c0       	rjmp	.+158    	; 0x87c <changeLed+0x146>
 7de:	8b 31       	cpi	r24, 0x1B	; 27
 7e0:	94 4e       	sbci	r25, 0xE4	; 228
 7e2:	09 f4       	brne	.+2      	; 0x7e6 <changeLed+0xb0>
 7e4:	5a c0       	rjmp	.+180    	; 0x89a <changeLed+0x164>
 7e6:	ca c0       	rjmp	.+404    	; 0x97c <changeLed+0x246>
 7e8:	87 31       	cpi	r24, 0x17	; 23
 7ea:	28 ee       	ldi	r18, 0xE8	; 232
 7ec:	92 07       	cpc	r25, r18
 7ee:	09 f4       	brne	.+2      	; 0x7f2 <changeLed+0xbc>
 7f0:	ae c0       	rjmp	.+348    	; 0x94e <changeLed+0x218>
 7f2:	86 31       	cpi	r24, 0x16	; 22
 7f4:	99 4e       	sbci	r25, 0xE9	; 233
 7f6:	09 f4       	brne	.+2      	; 0x7fa <changeLed+0xc4>
 7f8:	9a c0       	rjmp	.+308    	; 0x92e <changeLed+0x1f8>
 7fa:	c0 c0       	rjmp	.+384    	; 0x97c <changeLed+0x246>
 7fc:	81 31       	cpi	r24, 0x11	; 17
 7fe:	2e ee       	ldi	r18, 0xEE	; 238
 800:	92 07       	cpc	r25, r18
 802:	09 f4       	brne	.+2      	; 0x806 <changeLed+0xd0>
 804:	8b c0       	rjmp	.+278    	; 0x91c <changeLed+0x1e6>
 806:	50 f4       	brcc	.+20     	; 0x81c <changeLed+0xe6>
 808:	84 31       	cpi	r24, 0x14	; 20
 80a:	2b ee       	ldi	r18, 0xEB	; 235
 80c:	92 07       	cpc	r25, r18
 80e:	09 f4       	brne	.+2      	; 0x812 <changeLed+0xdc>
 810:	6e c0       	rjmp	.+220    	; 0x8ee <changeLed+0x1b8>
 812:	82 31       	cpi	r24, 0x12	; 18
 814:	9d 4e       	sbci	r25, 0xED	; 237
 816:	09 f4       	brne	.+2      	; 0x81a <changeLed+0xe4>
 818:	91 c0       	rjmp	.+290    	; 0x93c <changeLed+0x206>
 81a:	b0 c0       	rjmp	.+352    	; 0x97c <changeLed+0x246>
 81c:	87 30       	cpi	r24, 0x07	; 7
 81e:	28 ef       	ldi	r18, 0xF8	; 248
 820:	92 07       	cpc	r25, r18
 822:	09 f4       	brne	.+2      	; 0x826 <changeLed+0xf0>
 824:	a0 c0       	rjmp	.+320    	; 0x966 <changeLed+0x230>
 826:	86 30       	cpi	r24, 0x06	; 6
 828:	29 ef       	ldi	r18, 0xF9	; 249
 82a:	92 07       	cpc	r25, r18
 82c:	09 f4       	brne	.+2      	; 0x830 <changeLed+0xfa>
 82e:	94 c0       	rjmp	.+296    	; 0x958 <changeLed+0x222>
 830:	80 31       	cpi	r24, 0x10	; 16
 832:	9f 4e       	sbci	r25, 0xEF	; 239
 834:	09 f0       	breq	.+2      	; 0x838 <changeLed+0x102>
 836:	a2 c0       	rjmp	.+324    	; 0x97c <changeLed+0x246>
 838:	61 c0       	rjmp	.+194    	; 0x8fc <changeLed+0x1c6>
 83a:	80 91 db 00 	lds	r24, 0x00DB	; 0x8000db <bright>
 83e:	8f 71       	andi	r24, 0x1F	; 31
 840:	8f 5f       	subi	r24, 0xFF	; 255
 842:	80 6e       	ori	r24, 0xE0	; 224
 844:	80 93 db 00 	sts	0x00DB, r24	; 0x8000db <bright>
 848:	9c c0       	rjmp	.+312    	; 0x982 <changeLed+0x24c>
 84a:	80 91 db 00 	lds	r24, 0x00DB	; 0x8000db <bright>
 84e:	8f 71       	andi	r24, 0x1F	; 31
 850:	81 50       	subi	r24, 0x01	; 1
 852:	80 6e       	ori	r24, 0xE0	; 224
 854:	80 93 db 00 	sts	0x00DB, r24	; 0x8000db <bright>
 858:	94 c0       	rjmp	.+296    	; 0x982 <changeLed+0x24c>
 85a:	e0 e6       	ldi	r30, 0x60	; 96
 85c:	f0 e0       	ldi	r31, 0x00	; 0
 85e:	8a ef       	ldi	r24, 0xFA	; 250
 860:	82 83       	std	Z+2, r24	; 0x02
 862:	80 e8       	ldi	r24, 0x80	; 128
 864:	81 83       	std	Z+1, r24	; 0x01
 866:	82 e7       	ldi	r24, 0x72	; 114
 868:	80 83       	st	Z, r24
 86a:	88 c0       	rjmp	.+272    	; 0x97c <changeLed+0x246>
 86c:	e0 e6       	ldi	r30, 0x60	; 96
 86e:	f0 e0       	ldi	r31, 0x00	; 0
 870:	8f ef       	ldi	r24, 0xFF	; 255
 872:	82 83       	std	Z+2, r24	; 0x02
 874:	8c e8       	ldi	r24, 0x8C	; 140
 876:	81 83       	std	Z+1, r24	; 0x01
 878:	10 82       	st	Z, r1
 87a:	80 c0       	rjmp	.+256    	; 0x97c <changeLed+0x246>
 87c:	e0 e6       	ldi	r30, 0x60	; 96
 87e:	f0 e0       	ldi	r31, 0x00	; 0
 880:	8f ef       	ldi	r24, 0xFF	; 255
 882:	82 83       	std	Z+2, r24	; 0x02
 884:	85 ea       	ldi	r24, 0xA5	; 165
 886:	81 83       	std	Z+1, r24	; 0x01
 888:	10 82       	st	Z, r1
 88a:	78 c0       	rjmp	.+240    	; 0x97c <changeLed+0x246>
 88c:	e0 e6       	ldi	r30, 0x60	; 96
 88e:	f0 e0       	ldi	r31, 0x00	; 0
 890:	8f ef       	ldi	r24, 0xFF	; 255
 892:	82 83       	std	Z+2, r24	; 0x02
 894:	81 83       	std	Z+1, r24	; 0x01
 896:	10 82       	st	Z, r1
 898:	71 c0       	rjmp	.+226    	; 0x97c <changeLed+0x246>
 89a:	e0 e6       	ldi	r30, 0x60	; 96
 89c:	f0 e0       	ldi	r31, 0x00	; 0
 89e:	12 82       	std	Z+2, r1	; 0x02
 8a0:	8f ef       	ldi	r24, 0xFF	; 255
 8a2:	81 83       	std	Z+1, r24	; 0x01
 8a4:	80 83       	st	Z, r24
 8a6:	6a c0       	rjmp	.+212    	; 0x97c <changeLed+0x246>
 8a8:	e0 e6       	ldi	r30, 0x60	; 96
 8aa:	f0 e0       	ldi	r31, 0x00	; 0
 8ac:	8f ef       	ldi	r24, 0xFF	; 255
 8ae:	82 83       	std	Z+2, r24	; 0x02
 8b0:	11 82       	std	Z+1, r1	; 0x01
 8b2:	10 82       	st	Z, r1
 8b4:	63 c0       	rjmp	.+198    	; 0x97c <changeLed+0x246>
 8b6:	e0 e6       	ldi	r30, 0x60	; 96
 8b8:	f0 e0       	ldi	r31, 0x00	; 0
 8ba:	12 82       	std	Z+2, r1	; 0x02
 8bc:	8f ef       	ldi	r24, 0xFF	; 255
 8be:	81 83       	std	Z+1, r24	; 0x01
 8c0:	10 82       	st	Z, r1
 8c2:	5c c0       	rjmp	.+184    	; 0x97c <changeLed+0x246>
 8c4:	e0 e6       	ldi	r30, 0x60	; 96
 8c6:	f0 e0       	ldi	r31, 0x00	; 0
 8c8:	12 82       	std	Z+2, r1	; 0x02
 8ca:	11 82       	std	Z+1, r1	; 0x01
 8cc:	8f ef       	ldi	r24, 0xFF	; 255
 8ce:	80 83       	st	Z, r24
 8d0:	55 c0       	rjmp	.+170    	; 0x97c <changeLed+0x246>
 8d2:	e0 e6       	ldi	r30, 0x60	; 96
 8d4:	f0 e0       	ldi	r31, 0x00	; 0
 8d6:	8f ef       	ldi	r24, 0xFF	; 255
 8d8:	82 83       	std	Z+2, r24	; 0x02
 8da:	81 83       	std	Z+1, r24	; 0x01
 8dc:	80 83       	st	Z, r24
 8de:	4e c0       	rjmp	.+156    	; 0x97c <changeLed+0x246>
 8e0:	e0 e6       	ldi	r30, 0x60	; 96
 8e2:	f0 e0       	ldi	r31, 0x00	; 0
 8e4:	8f ef       	ldi	r24, 0xFF	; 255
 8e6:	82 83       	std	Z+2, r24	; 0x02
 8e8:	11 82       	std	Z+1, r1	; 0x01
 8ea:	80 83       	st	Z, r24
 8ec:	47 c0       	rjmp	.+142    	; 0x97c <changeLed+0x246>
 8ee:	e0 e6       	ldi	r30, 0x60	; 96
 8f0:	f0 e0       	ldi	r31, 0x00	; 0
 8f2:	82 81       	ldd	r24, Z+2	; 0x02
 8f4:	80 7f       	andi	r24, 0xF0	; 240
 8f6:	80 5f       	subi	r24, 0xF0	; 240
 8f8:	82 83       	std	Z+2, r24	; 0x02
 8fa:	40 c0       	rjmp	.+128    	; 0x97c <changeLed+0x246>
 8fc:	e0 e6       	ldi	r30, 0x60	; 96
 8fe:	f0 e0       	ldi	r31, 0x00	; 0
 900:	82 81       	ldd	r24, Z+2	; 0x02
 902:	98 2f       	mov	r25, r24
 904:	9f 70       	andi	r25, 0x0F	; 15
 906:	80 51       	subi	r24, 0x10	; 16
 908:	89 0f       	add	r24, r25
 90a:	82 83       	std	Z+2, r24	; 0x02
 90c:	37 c0       	rjmp	.+110    	; 0x97c <changeLed+0x246>
 90e:	e0 e6       	ldi	r30, 0x60	; 96
 910:	f0 e0       	ldi	r31, 0x00	; 0
 912:	81 81       	ldd	r24, Z+1	; 0x01
 914:	80 7f       	andi	r24, 0xF0	; 240
 916:	80 5f       	subi	r24, 0xF0	; 240
 918:	81 83       	std	Z+1, r24	; 0x01
 91a:	30 c0       	rjmp	.+96     	; 0x97c <changeLed+0x246>
 91c:	e0 e6       	ldi	r30, 0x60	; 96
 91e:	f0 e0       	ldi	r31, 0x00	; 0
 920:	81 81       	ldd	r24, Z+1	; 0x01
 922:	98 2f       	mov	r25, r24
 924:	9f 70       	andi	r25, 0x0F	; 15
 926:	80 51       	subi	r24, 0x10	; 16
 928:	89 0f       	add	r24, r25
 92a:	81 83       	std	Z+1, r24	; 0x01
 92c:	27 c0       	rjmp	.+78     	; 0x97c <changeLed+0x246>
 92e:	e0 e6       	ldi	r30, 0x60	; 96
 930:	f0 e0       	ldi	r31, 0x00	; 0
 932:	80 81       	ld	r24, Z
 934:	80 7f       	andi	r24, 0xF0	; 240
 936:	80 5f       	subi	r24, 0xF0	; 240
 938:	80 83       	st	Z, r24
 93a:	20 c0       	rjmp	.+64     	; 0x97c <changeLed+0x246>
 93c:	e0 e6       	ldi	r30, 0x60	; 96
 93e:	f0 e0       	ldi	r31, 0x00	; 0
 940:	80 81       	ld	r24, Z
 942:	90 ef       	ldi	r25, 0xF0	; 240
 944:	98 0f       	add	r25, r24
 946:	8f 70       	andi	r24, 0x0F	; 15
 948:	89 0f       	add	r24, r25
 94a:	80 83       	st	Z, r24
 94c:	17 c0       	rjmp	.+46     	; 0x97c <changeLed+0x246>
 94e:	93 b7       	in	r25, 0x33	; 51
 950:	81 e0       	ldi	r24, 0x01	; 1
 952:	89 27       	eor	r24, r25
 954:	83 bf       	out	0x33, r24	; 51
 956:	22 c0       	rjmp	.+68     	; 0x99c <changeLed+0x266>
 958:	89 b7       	in	r24, 0x39	; 57
 95a:	82 60       	ori	r24, 0x02	; 2
 95c:	89 bf       	out	0x39, r24	; 57
 95e:	81 e0       	ldi	r24, 0x01	; 1
 960:	80 93 da 00 	sts	0x00DA, r24	; 0x8000da <unit>
 964:	1b c0       	rjmp	.+54     	; 0x99c <changeLed+0x266>
 966:	89 b7       	in	r24, 0x39	; 57
 968:	82 60       	ori	r24, 0x02	; 2
 96a:	89 bf       	out	0x39, r24	; 57
 96c:	10 92 da 00 	sts	0x00DA, r1	; 0x8000da <unit>
 970:	15 c0       	rjmp	.+42     	; 0x99c <changeLed+0x266>
 972:	99 b7       	in	r25, 0x39	; 57
 974:	82 e0       	ldi	r24, 0x02	; 2
 976:	89 27       	eor	r24, r25
 978:	89 bf       	out	0x39, r24	; 57
 97a:	10 c0       	rjmp	.+32     	; 0x99c <changeLed+0x266>
 97c:	89 b7       	in	r24, 0x39	; 57
 97e:	8d 7f       	andi	r24, 0xFD	; 253
 980:	89 bf       	out	0x39, r24	; 57
 982:	64 e0       	ldi	r22, 0x04	; 4
 984:	87 e6       	ldi	r24, 0x67	; 103
 986:	90 e0       	ldi	r25, 0x00	; 0
 988:	90 de       	rcall	.-736    	; 0x6aa <SPIoutArray>
 98a:	cd e1       	ldi	r28, 0x1D	; 29
 98c:	d0 e0       	ldi	r29, 0x00	; 0
 98e:	ad de       	rcall	.-678    	; 0x6ea <refreshLed>
 990:	21 97       	sbiw	r28, 0x01	; 1
 992:	e9 f7       	brne	.-6      	; 0x98e <changeLed+0x258>
 994:	64 e0       	ldi	r22, 0x04	; 4
 996:	83 e6       	ldi	r24, 0x63	; 99
 998:	90 e0       	ldi	r25, 0x00	; 0
 99a:	87 de       	rcall	.-754    	; 0x6aa <SPIoutArray>
 99c:	c4 98       	cbi	0x18, 4	; 24
 99e:	78 94       	sei
 9a0:	df 91       	pop	r29
 9a2:	cf 91       	pop	r28
 9a4:	08 95       	ret

000009a6 <__vector_5>:
 9a6:	78 94       	sei
 9a8:	1f 92       	push	r1
 9aa:	0f 92       	push	r0
 9ac:	0f b6       	in	r0, 0x3f	; 63
 9ae:	0f 92       	push	r0
 9b0:	11 24       	eor	r1, r1
 9b2:	0f 93       	push	r16
 9b4:	1f 93       	push	r17
 9b6:	2f 93       	push	r18
 9b8:	3f 93       	push	r19
 9ba:	4f 93       	push	r20
 9bc:	5f 93       	push	r21
 9be:	6f 93       	push	r22
 9c0:	7f 93       	push	r23
 9c2:	8f 93       	push	r24
 9c4:	9f 93       	push	r25
 9c6:	af 93       	push	r26
 9c8:	bf 93       	push	r27
 9ca:	cf 93       	push	r28
 9cc:	df 93       	push	r29
 9ce:	ef 93       	push	r30
 9d0:	ff 93       	push	r31
 9d2:	64 e0       	ldi	r22, 0x04	; 4
 9d4:	87 e6       	ldi	r24, 0x67	; 103
 9d6:	90 e0       	ldi	r25, 0x00	; 0
 9d8:	68 de       	rcall	.-816    	; 0x6aa <SPIoutArray>
 9da:	c0 e0       	ldi	r28, 0x00	; 0
 9dc:	d0 e0       	ldi	r29, 0x00	; 0
 9de:	00 e6       	ldi	r16, 0x60	; 96
 9e0:	10 e0       	ldi	r17, 0x00	; 0
 9e2:	80 91 da 00 	lds	r24, 0x00DA	; 0x8000da <unit>
 9e6:	88 23       	and	r24, r24
 9e8:	21 f0       	breq	.+8      	; 0x9f2 <__vector_5+0x4c>
 9ea:	e0 91 78 00 	lds	r30, 0x0078	; 0x800078 <fadeCount.2124>
 9ee:	f0 e0       	ldi	r31, 0x00	; 0
 9f0:	0b c0       	rjmp	.+22     	; 0xa08 <__vector_5+0x62>
 9f2:	90 91 78 00 	lds	r25, 0x0078	; 0x800078 <fadeCount.2124>
 9f6:	fe 01       	movw	r30, r28
 9f8:	e9 0f       	add	r30, r25
 9fa:	f1 1d       	adc	r31, r1
 9fc:	f0 78       	andi	r31, 0x80	; 128
 9fe:	ff 23       	and	r31, r31
 a00:	1c f4       	brge	.+6      	; 0xa08 <__vector_5+0x62>
 a02:	31 97       	sbiw	r30, 0x01	; 1
 a04:	ff 6f       	ori	r31, 0xFF	; 255
 a06:	31 96       	adiw	r30, 0x01	; 1
 a08:	e2 5e       	subi	r30, 0xE2	; 226
 a0a:	fd 4f       	sbci	r31, 0xFD	; 253
 a0c:	e4 91       	lpm	r30, Z
 a0e:	e6 95       	lsr	r30
 a10:	d8 01       	movw	r26, r16
 a12:	12 96       	adiw	r26, 0x02	; 2
 a14:	ec 93       	st	X, r30
 a16:	88 23       	and	r24, r24
 a18:	21 f0       	breq	.+8      	; 0xa22 <__vector_5+0x7c>
 a1a:	e0 91 78 00 	lds	r30, 0x0078	; 0x800078 <fadeCount.2124>
 a1e:	f0 e0       	ldi	r31, 0x00	; 0
 a20:	0b c0       	rjmp	.+22     	; 0xa38 <__vector_5+0x92>
 a22:	90 91 78 00 	lds	r25, 0x0078	; 0x800078 <fadeCount.2124>
 a26:	fe 01       	movw	r30, r28
 a28:	e9 0f       	add	r30, r25
 a2a:	f1 1d       	adc	r31, r1
 a2c:	f0 78       	andi	r31, 0x80	; 128
 a2e:	ff 23       	and	r31, r31
 a30:	1c f4       	brge	.+6      	; 0xa38 <__vector_5+0x92>
 a32:	31 97       	sbiw	r30, 0x01	; 1
 a34:	ff 6f       	ori	r31, 0xFF	; 255
 a36:	31 96       	adiw	r30, 0x01	; 1
 a38:	e2 5e       	subi	r30, 0xE2	; 226
 a3a:	fe 4f       	sbci	r31, 0xFE	; 254
 a3c:	e4 91       	lpm	r30, Z
 a3e:	e6 95       	lsr	r30
 a40:	d8 01       	movw	r26, r16
 a42:	11 96       	adiw	r26, 0x01	; 1
 a44:	ec 93       	st	X, r30
 a46:	88 23       	and	r24, r24
 a48:	21 f0       	breq	.+8      	; 0xa52 <__vector_5+0xac>
 a4a:	e0 91 78 00 	lds	r30, 0x0078	; 0x800078 <fadeCount.2124>
 a4e:	f0 e0       	ldi	r31, 0x00	; 0
 a50:	0b c0       	rjmp	.+22     	; 0xa68 <__vector_5+0xc2>
 a52:	80 91 78 00 	lds	r24, 0x0078	; 0x800078 <fadeCount.2124>
 a56:	fe 01       	movw	r30, r28
 a58:	e8 0f       	add	r30, r24
 a5a:	f1 1d       	adc	r31, r1
 a5c:	f0 78       	andi	r31, 0x80	; 128
 a5e:	ff 23       	and	r31, r31
 a60:	1c f4       	brge	.+6      	; 0xa68 <__vector_5+0xc2>
 a62:	31 97       	sbiw	r30, 0x01	; 1
 a64:	ff 6f       	ori	r31, 0xFF	; 255
 a66:	31 96       	adiw	r30, 0x01	; 1
 a68:	e2 5e       	subi	r30, 0xE2	; 226
 a6a:	ff 4f       	sbci	r31, 0xFF	; 255
 a6c:	e4 91       	lpm	r30, Z
 a6e:	e6 95       	lsr	r30
 a70:	d8 01       	movw	r26, r16
 a72:	ec 93       	st	X, r30
 a74:	3a de       	rcall	.-908    	; 0x6ea <refreshLed>
 a76:	28 96       	adiw	r28, 0x08	; 8
 a78:	c8 3e       	cpi	r28, 0xE8	; 232
 a7a:	d1 05       	cpc	r29, r1
 a7c:	09 f0       	breq	.+2      	; 0xa80 <__vector_5+0xda>
 a7e:	b1 cf       	rjmp	.-158    	; 0x9e2 <__vector_5+0x3c>
 a80:	64 e0       	ldi	r22, 0x04	; 4
 a82:	83 e6       	ldi	r24, 0x63	; 99
 a84:	90 e0       	ldi	r25, 0x00	; 0
 a86:	11 de       	rcall	.-990    	; 0x6aa <SPIoutArray>
 a88:	80 91 78 00 	lds	r24, 0x0078	; 0x800078 <fadeCount.2124>
 a8c:	8f 5f       	subi	r24, 0xFF	; 255
 a8e:	80 93 78 00 	sts	0x0078, r24	; 0x800078 <fadeCount.2124>
 a92:	ff 91       	pop	r31
 a94:	ef 91       	pop	r30
 a96:	df 91       	pop	r29
 a98:	cf 91       	pop	r28
 a9a:	bf 91       	pop	r27
 a9c:	af 91       	pop	r26
 a9e:	9f 91       	pop	r25
 aa0:	8f 91       	pop	r24
 aa2:	7f 91       	pop	r23
 aa4:	6f 91       	pop	r22
 aa6:	5f 91       	pop	r21
 aa8:	4f 91       	pop	r20
 aaa:	3f 91       	pop	r19
 aac:	2f 91       	pop	r18
 aae:	1f 91       	pop	r17
 ab0:	0f 91       	pop	r16
 ab2:	0f 90       	pop	r0
 ab4:	0f be       	out	0x3f, r0	; 63
 ab6:	0f 90       	pop	r0
 ab8:	1f 90       	pop	r1
 aba:	18 95       	reti

00000abc <_exit>:
 abc:	f8 94       	cli

00000abe <__stop_program>:
 abe:	ff cf       	rjmp	.-2      	; 0xabe <__stop_program>
